20020819 160946 p2ak pjb Piano version of Ellington's Prelude to a Kiss
20030402 093653 chorales pjb Some Bach Chorales transcribed for piano
20030402 163208 chorales pjb add BWV 262 & BWV 288
20030403 095722 chorales pjb add BWV 18 and 43
20030403 151105 chorales pjb add BWV 145
20030403 182036 chorales pjb add BWV 306
20030405 101816 chorales pjb add BWVs 155 & 318
20030411 130237 chorales pjb add Es ist genug
20030412 165520 chorales pjb add Kyrie BWV 371
20030413 170017 chorales pjb add BWV 310 & 155
20030415 090443 chorales pjb add BWVs 25 & 315
20030501 145323 exercises pjb Exercises for Piano
20030614 164946 exercises pjb 3 wrong notes, cut superfluous timesigs
20030712 135944 pieces pjb Easy Piano Pieces
20030725 180418 pieces pjb fingering for Entertainer
20030730 123737 pieces pjb add Clair de Lune and Toy Soldiers March
20030731 165635 duets pjb Easy 4-hand Piano Arrangements
20030801 141721 duets pjb add waltz and landler in 2b and 3b
20030801 164228 duets pjb 3 minor bug-fixes
20030804 093534 pieces pjb fix Toy Soldiers 2nd line
20030804 141322 duets pjb add Hommage aux Belles Viennoises
20030804 201739 duets pjb add waltz in 5b
20030807 131005 duets pjb add 3# Deutsche from p97
20030808 080822 duets pjb first little bit of Atzenbrugg no1, p13
20030808 132349 duets pjb a bit more
20030809 191043 duets pjb rest of Atzenbrugg no1, p13
20030812 084811 duets pjb add Trauer-Walter p.1
20030812 133531 duets pjb add 2# German Dance from p.93
20030813 150709 duets pjb add Atzenbrugg no.4 in 5# from p.13
20030814 084924 duets pjb add Waltz in 6b from p.16
20030830 152150 pieces pjb add half of Prelude in C
20030831 092840 pieces pjb 2nd page of Bach Prelude in C
20040215 090201 pieces pjb add Magnetic Rag
20040216 161741 pieces pjb Magnetic Rag more or less complete
20040218 170400 pieces pjb polish the Magnetic Rag
20040509 083433 pieces pjb add op28no20 and move Golliwog in
20040510 151357 pieces pjb reduce Golliwog to 2 staves
20040512 132544 pieces pjb add start of Blue Monk
20040710 154505 exercises pjb redo first finger exercise
20041205 175944 pieces pjb add Summertime
20060216 134109 chorales pjb misprints and spacing in first 4 pages
20060216 182337 chorales pjb fix misprints and space all 10 pages
20060218 083812 chorales pjb add BWV274 and BWV437
20060304 122225 chorales pjb alphabetical order; add a couple
20080126 193147 exercises pjb add 1st page of jazz exercises
20111007 151352 exercises pjb added a page of chromatic scales in 423
20120617 213701 pieces pjb add most of Fugue 1 in C
20120618 031107 pieces pjb Fugue 1 in C through to end
20121024 105953 pieces pjb add The Harry Lime Theme
20140129 182138 rite_of_spring pjb First page of Rite of Spring, for piano
20140130 115121 rite_of_spring pjb horizontal spacing (grace notes hard..)
20140130 194805 rite_of_spring pjb more polished presentation
20140217 132230 beginnings pjb A collections of important beginnings of pieces
20140217 162057 beginnings pjb beethoven page mostly there...
20140305 183312 beginnings pjb add 30 bars of Metamorphosen
20140306 120422 beginnings pjb metamorphosen up to bar 36
20140306 222028 beginnings pjb metamorphosen typed in up to end
20140307 113300 beginnings pjb metamorphosen spaced and plausible
20140307 163026 beginnings pjb add four bach fugue-themes
20140309 201343 beginnings pjb add Schubert Tod u d Maedchen str4tet
20140311 134343 beginnings pjb most of Brahms Requiem and 4th Symph
20140313 184126 beginnings pjb add beethoven sixth, and most of berg
20140313 184219 snippets pjb small bits mostly moved out of beginnings
20140314 121349 beginnings pjb Berg Violinkonzert roughly finished
20140315 120722 beginnings pjb fill in a few dates
20140315 155716 beginnings pjb added about half of l'apres-midi d'un faune
20140317 130344 beginnings pjb add most of Wagner page
20140317 171854 beginnings pjb Wagner more-or-less ok
20140318 151733 beginnings pjb add bluebeards castle
20140321 165734 beginnings pjb add 25 bars of Holst Planets Mars
20140321 220206 beginnings pjb Planets up to bar 30
20140322 095553 beginnings pjb holst planets finished
20140322 155935 beginnings pjb just needs consistent innerhead and leftfoot
20140323 162323 beginnings pjb Debussy aproaches plausibility
20140323 165011 beginnings pjb more fussing over spacing; not much leeway
20140926 204207 tristan pjb snippet from Tristan, great climactic writing
20140929 151027 tristan pjb up to 29-and-a-bit bars
20140930 161502 tristan pjb notes typed in, spaced and voice added
