20020414 192826 trumpet pjb Good Tunes for Easy Trumpet
20020420 150646 trumpet pjb added brahms theme transposed +3st
20020522 142613 trumpet pjb add Perdido arrangement
20020609 100018 trumpet pjb first try at Prelude to a Kiss
20020610 082829 trumpet pjb iterate Prelude to a Kiss
20020612 145501 trumpet pjb another iteration of P2aK
20020623 135626 trumpet pjb and another iteration of P2aK
20020630 142848 trumpet pjb small changes to Rock, Rose & Kiss
20020711 145100 trumpet pjb a few more fingerings for P2aK
20020720 082918 trumpet pjb First sketch of Circus (too high ?)
20020720 140858 trumpet pjb circus galop pretty good
20020801 164649 trumpet pjb first sketch of Summertime
20020804 153236 trumpet pjb sketch Honeysuckle Rose
20020901 155527 trumpet pjb add arpeggios
20020902 091752 trumpet pjb add All Through the Night
20020907 094226 trumpet pjb fill out Summertime chords
20021029 162635 trumpet pjb fixes to Honeysuckle and All Through
20021102 151939 trumpet pjb Mood Indigo for Bb duet & piano
20021116 172708 trumpet pjb tweak duet in Mood Indigo
20021118 144436 trumpet pjb add some piano to Mood Indigo
20021219 155346 trumpet pjb add 1st page of Put Another Nickel In
20021219 201145 trumpet pjb add rest of Put Another Nickel In
20021228 152223 trumpet pjb add Nobody Knows You
20030317 205714 classical pjb Classical (copyright-free) pieces from trumpet
20030318 072310 classical pjb a few more bars of Golliwog's Cake-Walk
20030318 114300 classical pjb finished entering Golliwog's Cake-Walk
20030319 072748 classical pjb minor tweaks to the Golliwog
20030320 081433 classical pjb minor improvements to Golliwog
20030321 082024 classical pjb add Trumpet Voluntary, no RH yet
20030321 173010 classical pjb add Trumpet Voluntary right hand
20030330 211132 copyright pjb non-copyright-free pieces from trumpet
20030523 084445 copyright pjb beginning of Stormy Weather
20030523 134107 copyright pjb add second phrase
20030602 114235 copyright pjb add Moonglow (in F)
20030602 124752 classical pjb add chromatic scales
20030615 140337 copyright pjb first bit of The Hawk Talks
20030615 184206 copyright pjb more of Hawk Talks
20030616 071744 copyright pjb remainder of Hawk Talks
20030616 132201 copyright pjb minor adjustments of Hawk Talks
20030621 165659 classical pjb first 20 bars of William Tell Overture
20030622 164628 classical pjb another 30 bars of William Tell (in Bb)
20030623 160433 classical pjb all of William Tell in Bb
20030624 152133 classical pjb 2nd (better) version of WilTel in F
20030629 151930 classical pjb sketch in Jupiter from the Planets
20030704 184251 classical pjb very minor adjusts to Jupiter
20030707 170416 classical pjb first few bars of Liebestraum
20030711 132652 classical pjb finish Liebestraum
20030711 202120 classical pjb missing treble towards end of Liebestraum
20030713 134324 copyright pjb add tune & chords of Lullaby of Birdland
20030715 093834 copyright pjb add chords for 1st page of Lullaby of Birdland
20030717 140822 classical pjb sketch in Bacarolle
20030729 081321 copyright pjb sketch in rest of Stormy Weather
20030803 155554 classical pjb reharmonise Jupiter, slur Bacarolle
20030804 095736 copyright pjb filled out Birdland a bit
20030806 114637 copyright pjb fill out Caravan
20030815 185839 copyright pjb some adjustments to Lullaby
20030819 140227 copyright pjb fill out Caravan and polish Hawk Talks
20030822 142658 copyright pjb third page of Stormy Weather
20030822 145713 classical pjb add Scales page
20030909 213056 copyright pjb a few fixes and spacing in Stormy Weather
20030911 210141 copyright pjb first page sketched of Lets Twist Again
20030928 074101 copyright pjb add God Bless the Child & Man I Love
20031010 214103 classical pjb add La Volta by Byrd
20031019 074944 copyright pjb complete Lets Twist Again
20031019 132030 copyright pjb add Sophisticated Lady and Solitude
20031212 203111 classical pjb polish Liebestraum, delete 2b Tell version
20031216 184404 classical pjb try some adjustments to Theme from Jupiter
20031218 213023 classical pjb clutter moved out to misc
20031218 214630 classical pjb last 2 lines of La Volta reintroduced
20031219 211049 classical pjb add Low Scales, arrange pieces alphabetically
20040131 164948 copyright pjb complete La Vie En Rose
20040227 142542 copyright pjb add Girl From Ipanema (from memory...)
20040228 191002 copyright pjb sketch in piano for Boy From Ipanima
20040229 220703 copyright pjb fill out accomp of Boy From Ipanima
20040301 091657 copyright pjb refine and adjust Boy From Ipanima
20040301 211322 copyright pjb minor tweaks to Boy From Ipanima
20040324 154120 copyright pjb add in Day and Night, from ../songs
20040413 195835 copyright pjb tune of Ol' Man River
20040421 135810 copyright pjb complete Ol' Man River
20040527 180912 trp_and_pno_1 pjb Formerly "classical", now starting Melody in F
20040527 222318 trp_and_pno_1 pjb added more of Melody in F
20040528 122752 trp_and_pno_1 pjb all of Melody in F
20040528 195712 trp_and_pno_1 pjb add beginning of Humoreske
20040531 090429 trp_and_pno_1 pjb add remainder of Melody in F
20040619 102241 trp_and_pno_1 pjb move Humoresk & Melody into place,
20040619 103051 trp_and_pno_1 pjb add Minor Sixths and Sevenths
20040703 075841 trp_and_pno_1 pjb tidy up pagenums for release
20060412 194606 trp_and_pno_1 pjb proofread up to Humoreske
20060415 111219 trp_and_pno_1 pjb add Theme from the Haydn Variations
